target datalayout = "e-m:e-p270:32:32-p271:32:32-p272:64:64-i64:64-i128:128-f80:128-n8:16:32:64-S128"
target triple = "x86_64-pc-linux-gnu"

%struct.Lpk_Fun_t_ = type { ptr, i32, i32, [32 x i32], i32, [16 x i32], [16 x i8], [0 x i32] }

; Function Attrs: inlinehint nounwind uwtable
define internal i32 @Kit_TruthWordNum(i32 noundef %0) #3 {
  %2 = alloca i32, align 4
  store i32 %0, ptr %2, align 4, !tbaa !3
  %3 = load i32, ptr %2, align 4, !tbaa !3
  %4 = icmp sle i32 %3, 5
  br i1 %4, label %5, label %6

5:                                                ; preds = %1
  br label %10

6:                                                ; preds = %1
  %7 = load i32, ptr %2, align 4, !tbaa !3
  %8 = sub nsw i32 %7, 5
  %9 = shl i32 1, %8
  br label %10

10:                                               ; preds = %6, %5
  %11 = phi i32 [ 1, %5 ], [ %9, %6 ]
  ret i32 %11
}

; Function Attrs: inlinehint nounwind uwtable
define internal ptr @Lpk_FunTruth(ptr noundef %0, i32 noundef %1) #3 {
  %3 = alloca ptr, align 8
  %4 = alloca i32, align 4
  store ptr %0, ptr %3, align 8, !tbaa !7
  store i32 %1, ptr %4, align 4, !tbaa !3
  %5 = load ptr, ptr %3, align 8, !tbaa !7
  %6 = getelementptr inbounds nuw %struct.Lpk_Fun_t_, ptr %5, i32 0, i32 7
  %7 = getelementptr inbounds [0 x i32], ptr %6, i64 0, i64 0
  %8 = load ptr, ptr %3, align 8, !tbaa !7
  %9 = getelementptr inbounds nuw %struct.Lpk_Fun_t_, ptr %8, i32 0, i32 1
  %10 = load i32, ptr %9, align 8
  %11 = lshr i32 %10, 7
  %12 = and i32 %11, 31
  %13 = call i32 @Kit_TruthWordNum(i32 noundef %12)
  %14 = load i32, ptr %4, align 4, !tbaa !3
  %15 = mul nsw i32 %13, %14
  %16 = sext i32 %15 to i64
  %17 = getelementptr inbounds i32, ptr %7, i64 %16
  ret ptr %17
}

; Function Attrs: inlinehint nounwind uwtable
define internal i32 @Kit_WordCountOnes(i32 noundef %0) #3 {
  %2 = alloca i32, align 4
  store i32 %0, ptr %2, align 4, !tbaa !3
  %3 = load i32, ptr %2, align 4, !tbaa !3
  %4 = and i32 %3, 1431655765
  %5 = load i32, ptr %2, align 4, !tbaa !3
  %6 = lshr i32 %5, 1
  %7 = and i32 %6, 1431655765
  %8 = add i32 %4, %7
  store i32 %8, ptr %2, align 4, !tbaa !3
  %9 = load i32, ptr %2, align 4, !tbaa !3
  %10 = and i32 %9, 858993459
  %11 = load i32, ptr %2, align 4, !tbaa !3
  %12 = lshr i32 %11, 2
  %13 = and i32 %12, 858993459
  %14 = add i32 %10, %13
  store i32 %14, ptr %2, align 4, !tbaa !3
  %15 = load i32, ptr %2, align 4, !tbaa !3
  %16 = and i32 %15, 252645135
  %17 = load i32, ptr %2, align 4, !tbaa !3
  %18 = lshr i32 %17, 4
  %19 = and i32 %18, 252645135
  %20 = add i32 %16, %19
  store i32 %20, ptr %2, align 4, !tbaa !3
  %21 = load i32, ptr %2, align 4, !tbaa !3
  %22 = and i32 %21, 16711935
  %23 = load i32, ptr %2, align 4, !tbaa !3
  %24 = lshr i32 %23, 8
  %25 = and i32 %24, 16711935
  %26 = add i32 %22, %25
  store i32 %26, ptr %2, align 4, !tbaa !3
  %27 = load i32, ptr %2, align 4, !tbaa !3
  %28 = and i32 %27, 65535
  %29 = load i32, ptr %2, align 4, !tbaa !3
  %30 = lshr i32 %29, 16
  %31 = add i32 %28, %30
  ret i32 %31
}

; Function Attrs: inlinehint nounwind uwtable
define internal i32 @Kit_BitMask(i32 noundef %0) #3 {
  %2 = alloca i32, align 4
  store i32 %0, ptr %2, align 4, !tbaa !3
  %3 = load i32, ptr %2, align 4, !tbaa !3
  %4 = shl i32 -1, %3
  %5 = xor i32 %4, -1
  ret i32 %5
}

; Function Attrs: nounwind uwtable
define i32 @Lpk_FunSuppMinimize(ptr noundef %0) #0 {
  %2 = alloca i32, align 4
  %3 = alloca ptr, align 8
  %4 = alloca i32, align 4
  %5 = alloca i32, align 4
  %6 = alloca i32, align 4
  %7 = alloca i32, align 4
  store ptr %0, ptr %3, align 8, !tbaa !7
  call void @llvm.lifetime.start.p0(i64 4, ptr %4) #9
  call void @llvm.lifetime.start.p0(i64 4, ptr %5) #9
  call void @llvm.lifetime.start.p0(i64 4, ptr %6) #9
  %8 = load ptr, ptr %3, align 8, !tbaa !7
  %9 = getelementptr inbounds nuw %struct.Lpk_Fun_t_, ptr %8, i32 0, i32 2
  %10 = load i32, ptr %9, align 4, !tbaa !19
  %11 = load ptr, ptr %3, align 8, !tbaa !7
  %12 = getelementptr inbounds nuw %struct.Lpk_Fun_t_, ptr %11, i32 0, i32 1
  %13 = load i32, ptr %12, align 8
  %14 = lshr i32 %13, 7
  %15 = and i32 %14, 31
  %16 = call i32 @Kit_BitMask(i32 noundef %15)
  %17 = icmp eq i32 %10, %16
  br i1 %17, label %18, label %19

18:                                               ; preds = %1
  store i32 0, ptr %2, align 4
  store i32 1, ptr %7, align 4
  br label %100

19:                                               ; preds = %1
  %20 = load ptr, ptr %3, align 8, !tbaa !7
  %21 = getelementptr inbounds nuw %struct.Lpk_Fun_t_, ptr %20, i32 0, i32 1
  %22 = load i32, ptr %21, align 8
  %23 = and i32 %22, -1073741825
  %24 = or i32 %23, 0
  store i32 %24, ptr %21, align 8
  %25 = load ptr, ptr %3, align 8, !tbaa !7
  %26 = getelementptr inbounds nuw %struct.Lpk_Fun_t_, ptr %25, i32 0, i32 2
  %27 = load i32, ptr %26, align 4, !tbaa !19
  %28 = call i32 @Kit_WordCountOnes(i32 noundef %27)
  store i32 %28, ptr %6, align 4, !tbaa !3
  %29 = load ptr, ptr %3, align 8, !tbaa !7
  %30 = call ptr @Lpk_FunTruth(ptr noundef %29, i32 noundef 1)
  %31 = load ptr, ptr %3, align 8, !tbaa !7
  %32 = call ptr @Lpk_FunTruth(ptr noundef %31, i32 noundef 0)
  %33 = load i32, ptr %6, align 4, !tbaa !3
  %34 = load ptr, ptr %3, align 8, !tbaa !7
  %35 = getelementptr inbounds nuw %struct.Lpk_Fun_t_, ptr %34, i32 0, i32 1
  %36 = load i32, ptr %35, align 8
  %37 = lshr i32 %36, 7
  %38 = and i32 %37, 31
  %39 = load ptr, ptr %3, align 8, !tbaa !7
  %40 = getelementptr inbounds nuw %struct.Lpk_Fun_t_, ptr %39, i32 0, i32 2
  %41 = load i32, ptr %40, align 4, !tbaa !19
  call void @Kit_TruthShrink(ptr noundef %30, ptr noundef %32, i32 noundef %33, i32 noundef %38, i32 noundef %41, i32 noundef 1)
  store i32 0, ptr %5, align 4, !tbaa !3
  store i32 0, ptr %4, align 4, !tbaa !3
  br label %42

42:                                               ; preds = %80, %19
  %43 = load i32, ptr %4, align 4, !tbaa !3
  %44 = icmp slt i32 %43, 16
  br i1 %44, label %45, label %83

45:                                               ; preds = %42
  %46 = load ptr, ptr %3, align 8, !tbaa !7
  %47 = getelementptr inbounds nuw %struct.Lpk_Fun_t_, ptr %46, i32 0, i32 2
  %48 = load i32, ptr %47, align 4, !tbaa !19
  %49 = load i32, ptr %4, align 4, !tbaa !3
  %50 = shl i32 1, %49
  %51 = and i32 %48, %50
  %52 = icmp ne i32 %51, 0
  br i1 %52, label %54, label %53

53:                                               ; preds = %45
  br label %79

54:                                               ; preds = %45
  %55 = load ptr, ptr %3, align 8, !tbaa !7
  %56 = getelementptr inbounds nuw %struct.Lpk_Fun_t_, ptr %55, i32 0, i32 6
  %57 = load i32, ptr %4, align 4, !tbaa !3
  %58 = sext i32 %57 to i64
  %59 = getelementptr inbounds [16 x i8], ptr %56, i64 0, i64 %58
  %60 = load i8, ptr %59, align 1, !tbaa !22
  %61 = load ptr, ptr %3, align 8, !tbaa !7
  %62 = getelementptr inbounds nuw %struct.Lpk_Fun_t_, ptr %61, i32 0, i32 6
  %63 = load i32, ptr %5, align 4, !tbaa !3
  %64 = sext i32 %63 to i64
  %65 = getelementptr inbounds [16 x i8], ptr %62, i64 0, i64 %64
  store i8 %60, ptr %65, align 1, !tbaa !22
  %66 = load ptr, ptr %3, align 8, !tbaa !7
  %67 = getelementptr inbounds nuw %struct.Lpk_Fun_t_, ptr %66, i32 0, i32 5
  %68 = load i32, ptr %4, align 4, !tbaa !3
  %69 = sext i32 %68 to i64
  %70 = getelementptr inbounds [16 x i32], ptr %67, i64 0, i64 %69
  %71 = load i32, ptr %70, align 4, !tbaa !3
  %72 = load ptr, ptr %3, align 8, !tbaa !7
  %73 = getelementptr inbounds nuw %struct.Lpk_Fun_t_, ptr %72, i32 0, i32 5
  %74 = load i32, ptr %5, align 4, !tbaa !3
  %75 = sext i32 %74 to i64
  %76 = getelementptr inbounds [16 x i32], ptr %73, i64 0, i64 %75
  store i32 %71, ptr %76, align 4, !tbaa !3
  %77 = load i32, ptr %5, align 4, !tbaa !3
  %78 = add nsw i32 %77, 1
  store i32 %78, ptr %5, align 4, !tbaa !3
  br label %79

79:                                               ; preds = %54, %53
  br label %80

80:                                               ; preds = %79
  %81 = load i32, ptr %4, align 4, !tbaa !3
  %82 = add nsw i32 %81, 1
  store i32 %82, ptr %4, align 4, !tbaa !3
  br label %42, !llvm.loop !31

83:                                               ; preds = %42
  %84 = load i32, ptr %5, align 4, !tbaa !3
  %85 = load ptr, ptr %3, align 8, !tbaa !7
  %86 = getelementptr inbounds nuw %struct.Lpk_Fun_t_, ptr %85, i32 0, i32 1
  %87 = load i32, ptr %86, align 8
  %88 = and i32 %84, 31
  %89 = shl i32 %88, 7
  %90 = and i32 %87, -3969
  %91 = or i32 %90, %89
  store i32 %91, ptr %86, align 8
  %92 = load ptr, ptr %3, align 8, !tbaa !7
  %93 = getelementptr inbounds nuw %struct.Lpk_Fun_t_, ptr %92, i32 0, i32 1
  %94 = load i32, ptr %93, align 8
  %95 = lshr i32 %94, 7
  %96 = and i32 %95, 31
  %97 = call i32 @Kit_BitMask(i32 noundef %96)
  %98 = load ptr, ptr %3, align 8, !tbaa !7
  %99 = getelementptr inbounds nuw %struct.Lpk_Fun_t_, ptr %98, i32 0, i32 2
  store i32 %97, ptr %99, align 4, !tbaa !19
  store i32 1, ptr %2, align 4
  store i32 1, ptr %7, align 4
  br label %100

100:                                              ; preds = %83, %18
  call void @llvm.lifetime.end.p0(i64 4, ptr %6) #9
  call void @llvm.lifetime.end.p0(i64 4, ptr %5) #9
  call void @llvm.lifetime.end.p0(i64 4, ptr %4) #9
  %101 = load i32, ptr %2, align 4
  ret i32 %101
}